; ModuleID = '50/318.c'
source_filename = "50/318.c"
target datalayout = "e-m:e-p270:32:32-p271:32:32-p272:64:64-i64:64-f80:128-n8:16:32:64-S128"
target triple = "x86_64-pc-linux-gnu"

@__const.main.b = private unnamed_addr constant [12 x i32] [i32 1, i32 2, i32 3, i32 4, i32 5, i32 6, i32 7, i32 8, i32 9, i32 10, i32 11, i32 12], align 16
@.str = private unnamed_addr constant [3 x i8] c"%d\00", align 1
@.str.1 = private unnamed_addr constant [4 x i8] c"%d\0A\00", align 1

; Function Attrs: noinline nounwind uwtable
define dso_local void @main() #0 {
  %1 = alloca [12 x i32], align 16
  %2 = alloca [12 x i32], align 16
  %3 = alloca i32, align 4
  %4 = alloca i32, align 4
  %5 = bitcast [12 x i32]* %2 to i8*
  call void @llvm.memcpy.p0i8.p0i8.i64(i8* align 16 %5, i8* align 16 bitcast ([12 x i32]* @__const.main.b to i8*), i64 48, i1 false)
  %6 = call i32 (i8*, ...) @__isoc99_scanf(i8* getelementptr inbounds ([3 x i8], [3 x i8]* @.str, i64 0, i64 0), i32* %3)
  %7 = getelementptr inbounds [12 x i32], [12 x i32]* %1, i64 0, i64 0
  store i32 13, i32* %7, align 16
  %8 = getelementptr inbounds [12 x i32], [12 x i32]* %1, i64 0, i64 1
  store i32 44, i32* %8, align 4
  %9 = getelementptr inbounds [12 x i32], [12 x i32]* %1, i64 0, i64 2
  store i32 72, i32* %9, align 8
  %10 = getelementptr inbounds [12 x i32], [12 x i32]* %1, i64 0, i64 3
  store i32 103, i32* %10, align 4
  %11 = getelementptr inbounds [12 x i32], [12 x i32]* %1, i64 0, i64 4
  store i32 133, i32* %11, align 16
  %12 = getelementptr inbounds [12 x i32], [12 x i32]* %1, i64 0, i64 5
  store i32 164, i32* %12, align 4
  %13 = getelementptr inbounds [12 x i32], [12 x i32]* %1, i64 0, i64 6
  store i32 194, i32* %13, align 8
  %14 = getelementptr inbounds [12 x i32], [12 x i32]* %1, i64 0, i64 7
  store i32 225, i32* %14, align 4
  %15 = getelementptr inbounds [12 x i32], [12 x i32]* %1, i64 0, i64 8
  store i32 256, i32* %15, align 16
  %16 = getelementptr inbounds [12 x i32], [12 x i32]* %1, i64 0, i64 9
  store i32 286, i32* %16, align 4
  %17 = getelementptr inbounds [12 x i32], [12 x i32]* %1, i64 0, i64 10
  store i32 317, i32* %17, align 8
  %18 = getelementptr inbounds [12 x i32], [12 x i32]* %1, i64 0, i64 11
  store i32 347, i32* %18, align 4
  store i32 0, i32* %4, align 4
  br label %19

19:                                               ; preds = %39, %0
  %20 = load i32, i32* %4, align 4
  %21 = icmp sle i32 %20, 11
  br i1 %21, label %22, label %42

22:                                               ; preds = %19
  %23 = load i32, i32* %4, align 4
  %24 = sext i32 %23 to i64
  %25 = getelementptr inbounds [12 x i32], [12 x i32]* %1, i64 0, i64 %24
  %26 = load i32, i32* %25, align 4
  %27 = sub nsw i32 %26, 13
  %28 = load i32, i32* %3, align 4
  %29 = add nsw i32 %27, %28
  %30 = srem i32 %29, 7
  %31 = icmp eq i32 %30, 0
  br i1 %31, label %32, label %38

32:                                               ; preds = %22
  %33 = load i32, i32* %4, align 4
  %34 = sext i32 %33 to i64
  %35 = getelementptr inbounds [12 x i32], [12 x i32]* %2, i64 0, i64 %34
  %36 = load i32, i32* %35, align 4
  %37 = call i32 (i8*, ...) @printf(i8* getelementptr inbounds ([4 x i8], [4 x i8]* @.str.1, i64 0, i64 0), i32 %36)
  br label %38

38:                                               ; preds = %32, %22
  br label %39

39:                                               ; preds = %38
  %40 = load i32, i32* %4, align 4
  %41 = add nsw i32 %40, 1
  store i32 %41, i32* %4, align 4
  br label %19

42:                                               ; preds = %19
  ret void
}

; Function Attrs: argmemonly nounwind willreturn
declare void @llvm.memcpy.p0i8.p0i8.i64(i8* noalias nocapture writeonly, i8* noalias nocapture readonly, i64, i1 immarg) #1

declare dso_local i32 @__isoc99_scanf(i8*, ...) #2

declare dso_local i32 @printf(i8*, ...) #2


!llvm.module.flags = !{!0}
!llvm.ident = !{!1}

!0 = !{i32 1, !"wchar_size", i32 4}
!1 = !{!"clang version 10.0.0-4ubuntu1 "}
